(i__main__
LogFile
p0
(dp1
S'_installed_files'
p2
(dp3
S'../../../MyAnalysis/x86_64-slc6-gcc49-opt/libMyAnalysis.so.debug'
p4
S'../../InstallArea/x86_64-slc6-gcc49-opt/lib/libMyAnalysis.so.debug'
p5
sS'../../../MyAnalysis/x86_64-slc6-gcc49-opt/libMyAnalysis.so'
p6
S'../../InstallArea/x86_64-slc6-gcc49-opt/lib/libMyAnalysis.so'
p7
sS'../../../../../../../../../cvmfs/atlas.cern.ch/repo/sw/software/x86_64-slc6-gcc49-opt/20.20.10/GAUDI/v26r2p3-lcg81f/GaudiPolicy/cmt/fragments/__init__.py'
p8
S'../../InstallArea/python/MyAnalysis/__init__.py'
p9
sS'../../MyAnalysis/genConf/MyAnalysis'
p10
(dp11
S'../../../MyAnalysis/genConf/MyAnalysis/MyAnalysisConf.py'
p12
S'../../InstallArea/python/MyAnalysis/MyAnalysisConf.py'
p13
sssb.